target datalayout = "e-m:e-p270:32:32-p271:32:32-p272:64:64-i64:64-i128:128-f80:128-n8:16:32:64-S128"
target triple = "x86_64-pc-linux-gnu"

@.str.63 = private unnamed_addr constant [2 x i8] c"w\00", align 1
@.str.285 = private unnamed_addr constant [41 x i8] c"could not open file \22%s\22 for writing: %m\00", align 1
@.str.288 = private unnamed_addr constant [30 x i8] c"could not write file \22%s\22: %m\00", align 1
@.str.369 = private unnamed_addr constant [30 x i8] c"could not close file \22%s\22: %m\00", align 1

; Function Attrs: nounwind uwtable
define internal void @writefile(ptr noundef %0, ptr noundef %1) #0 {
  %3 = alloca ptr, align 8
  %4 = alloca ptr, align 8
  %5 = alloca ptr, align 8
  %6 = alloca ptr, align 8
  store ptr %0, ptr %3, align 8
  store ptr %1, ptr %4, align 8
  call void @llvm.lifetime.start.p0(i64 8, ptr %5) #10
  call void @llvm.lifetime.start.p0(i64 8, ptr %6) #10
  %7 = load ptr, ptr %3, align 8
  %8 = call noalias ptr @fopen(ptr noundef %7, ptr noundef @.str.63)
  store ptr %8, ptr %5, align 8
  %9 = icmp eq ptr %8, null
  br i1 %9, label %10, label %15

10:                                               ; preds = %2
  br label %11

11:                                               ; preds = %10
  %12 = load ptr, ptr %3, align 8
  call void (i32, i32, ptr, ...) @pg_log_generic(i32 noundef 4, i32 noundef 0, ptr noundef @.str.285, ptr noundef %12)
  call void @exit(i32 noundef 1) #12
  unreachable

13:                                               ; No predecessors!
  br label %14

14:                                               ; preds = %13
  br label %15

15:                                               ; preds = %14, %2
  %16 = load ptr, ptr %4, align 8
  store ptr %16, ptr %6, align 8
  br label %17

17:                                               ; preds = %35, %15
  %18 = load ptr, ptr %6, align 8
  %19 = load ptr, ptr %18, align 8
  %20 = icmp ne ptr %19, null
  br i1 %20, label %21, label %38

21:                                               ; preds = %17
  %22 = load ptr, ptr %6, align 8
  %23 = load ptr, ptr %22, align 8
  %24 = load ptr, ptr %5, align 8
  %25 = call i32 @fputs(ptr noundef %23, ptr noundef %24)
  %26 = icmp slt i32 %25, 0
  br i1 %26, label %27, label %32

27:                                               ; preds = %21
  br label %28

28:                                               ; preds = %27
  %29 = load ptr, ptr %3, align 8
  call void (i32, i32, ptr, ...) @pg_log_generic(i32 noundef 4, i32 noundef 0, ptr noundef @.str.288, ptr noundef %29)
  call void @exit(i32 noundef 1) #12
  unreachable

30:                                               ; No predecessors!
  br label %31

31:                                               ; preds = %30
  br label %32

32:                                               ; preds = %31, %21
  %33 = load ptr, ptr %6, align 8
  %34 = load ptr, ptr %33, align 8
  call void @free(ptr noundef %34) #10
  br label %35

35:                                               ; preds = %32
  %36 = load ptr, ptr %6, align 8
  %37 = getelementptr inbounds nuw ptr, ptr %36, i32 1
  store ptr %37, ptr %6, align 8
  br label %17, !llvm.loop !28

38:                                               ; preds = %17
  %39 = load ptr, ptr %5, align 8
  %40 = call i32 @fclose(ptr noundef %39)
  %41 = icmp ne i32 %40, 0
  br i1 %41, label %42, label %47

42:                                               ; preds = %38
  br label %43

43:                                               ; preds = %42
  %44 = load ptr, ptr %3, align 8
  call void (i32, i32, ptr, ...) @pg_log_generic(i32 noundef 4, i32 noundef 0, ptr noundef @.str.369, ptr noundef %44)
  call void @exit(i32 noundef 1) #12
  unreachable

45:                                               ; No predecessors!
  br label %46

46:                                               ; preds = %45
  br label %47

47:                                               ; preds = %46, %38
  %48 = load ptr, ptr %4, align 8
  call void @free(ptr noundef %48) #10
  call void @llvm.lifetime.end.p0(i64 8, ptr %6) #10
  call void @llvm.lifetime.end.p0(i64 8, ptr %5) #10
  ret void
}