; Function Attrs: nounwind uwtable
define internal fastcc void @writefile(ptr noundef nonnull %0, ptr noundef captures(none) %1) unnamed_addr #0 {
  %3 = tail call noalias ptr @fopen(ptr noundef nonnull %0, ptr noundef nonnull @.str.63)
  %4 = icmp eq ptr %3, null
  br i1 %4, label %6, label %.preheader

.preheader:                                       ; preds = %2
  %5 = load ptr, ptr %1, align 8
  %.not15 = icmp eq ptr %5, null
  br i1 %.not15, label %._crit_edge, label %.lr.ph

6:                                                ; preds = %2
  tail call void (i32, i32, ptr, ...) @pg_log_generic(i32 noundef 4, i32 noundef 0, ptr noundef nonnull @.str.285, ptr noundef nonnull %0) #19
  tail call void @exit(i32 noundef 1) #20
  unreachable

.lr.ph:                                           ; preds = %.preheader, %11
  %7 = phi ptr [ %14, %11 ], [ %5, %.preheader ]
  %.016 = phi ptr [ %13, %11 ], [ %1, %.preheader ]
  %8 = tail call i32 @fputs(ptr noundef nonnull %7, ptr noundef nonnull %3)
  %9 = icmp slt i32 %8, 0
  br i1 %9, label %10, label %11

10:                                               ; preds = %.lr.ph
  tail call void (i32, i32, ptr, ...) @pg_log_generic(i32 noundef 4, i32 noundef 0, ptr noundef nonnull @.str.288, ptr noundef nonnull %0) #19
  tail call void @exit(i32 noundef 1) #20
  unreachable

11:                                               ; preds = %.lr.ph
  %12 = load ptr, ptr %.016, align 8
  tail call void @free(ptr noundef %12) #19
  %13 = getelementptr inbounds nuw i8, ptr %.016, i64 8
  %14 = load ptr, ptr %13, align 8
  %.not = icmp eq ptr %14, null
  br i1 %.not, label %._crit_edge, label %.lr.ph, !llvm.loop !25

._crit_edge:                                      ; preds = %11, %.preheader
  %15 = tail call i32 @fclose(ptr noundef nonnull %3)
  %.not14 = icmp eq i32 %15, 0
  br i1 %.not14, label %17, label %16

16:                                               ; preds = %._crit_edge
  tail call void (i32, i32, ptr, ...) @pg_log_generic(i32 noundef 4, i32 noundef 0, ptr noundef nonnull @.str.369, ptr noundef nonnull %0) #19
  tail call void @exit(i32 noundef 1) #20
  unreachable

17:                                               ; preds = %._crit_edge
  tail call void @free(ptr noundef %1) #19
  ret void
}